target datalayout = "e-m:e-p270:32:32-p271:32:32-p272:64:64-i64:64-i128:128-f80:128-n8:16:32:64-S128"
target triple = "x86_64-pc-linux-gnu"

%struct.entry = type { ptr, ptr }
%struct.symtab = type { ptr, i64, ptr, ptr }
%struct.elf_symbol = type { ptr, i64, i64 }

; Function Attrs: nounwind uwtable
define hidden i64 @search_symbol(ptr noundef %0, i64 noundef %1, ptr noundef %2, ptr noundef %3) #0 {
  %5 = alloca i64, align 8
  %6 = alloca ptr, align 8
  %7 = alloca i64, align 8
  %8 = alloca ptr, align 8
  %9 = alloca ptr, align 8
  %10 = alloca %struct.entry, align 8
  %11 = alloca ptr, align 8
  %12 = alloca ptr, align 8
  %13 = alloca i64, align 8
  store ptr %0, ptr %6, align 8
  store i64 %1, ptr %7, align 8
  store ptr %2, ptr %8, align 8
  store ptr %3, ptr %9, align 8
  store ptr null, ptr %11, align 8
  %14 = load ptr, ptr %6, align 8
  %15 = icmp ne ptr %14, null
  br i1 %15, label %16, label %21

16:                                               ; preds = %4
  %17 = load ptr, ptr %6, align 8
  %18 = getelementptr inbounds %struct.symtab, ptr %17, i32 0, i32 3
  %19 = load ptr, ptr %18, align 8
  %20 = icmp ne ptr %19, null
  br i1 %20, label %22, label %21

21:                                               ; preds = %16, %4
  store i64 0, ptr %5, align 8
  br label %63

22:                                               ; preds = %16
  %23 = load ptr, ptr %8, align 8
  %24 = call noalias ptr @strdup(ptr noundef %23) #7
  %25 = getelementptr inbounds %struct.entry, ptr %10, i32 0, i32 0
  store ptr %24, ptr %25, align 8
  %26 = getelementptr inbounds %struct.entry, ptr %10, i32 0, i32 1
  store ptr null, ptr %26, align 8
  %27 = load ptr, ptr %6, align 8
  %28 = getelementptr inbounds %struct.symtab, ptr %27, i32 0, i32 3
  %29 = load ptr, ptr %28, align 8
  %30 = getelementptr inbounds { ptr, ptr }, ptr %10, i32 0, i32 0
  %31 = load ptr, ptr %30, align 8
  %32 = getelementptr inbounds { ptr, ptr }, ptr %10, i32 0, i32 1
  %33 = load ptr, ptr %32, align 8
  %34 = call i32 @hsearch_r(ptr %31, ptr %33, i32 noundef 0, ptr noundef %11, ptr noundef %29) #7
  %35 = load ptr, ptr %11, align 8
  %36 = icmp ne ptr %35, null
  br i1 %36, label %37, label %60

37:                                               ; preds = %22
  %38 = load ptr, ptr %11, align 8
  %39 = getelementptr inbounds %struct.entry, ptr %38, i32 0, i32 1
  %40 = load ptr, ptr %39, align 8
  store ptr %40, ptr %12, align 8
  %41 = load i64, ptr %7, align 8
  %42 = inttoptr i64 %41 to ptr
  %43 = load ptr, ptr %12, align 8
  %44 = getelementptr inbounds %struct.elf_symbol, ptr %43, i32 0, i32 1
  %45 = load i64, ptr %44, align 8
  %46 = getelementptr inbounds i8, ptr %42, i64 %45
  %47 = ptrtoint ptr %46 to i64
  store i64 %47, ptr %13, align 8
  %48 = load ptr, ptr %9, align 8
  %49 = icmp ne ptr %48, null
  br i1 %49, label %50, label %56

50:                                               ; preds = %37
  %51 = load ptr, ptr %12, align 8
  %52 = getelementptr inbounds %struct.elf_symbol, ptr %51, i32 0, i32 2
  %53 = load i64, ptr %52, align 8
  %54 = trunc i64 %53 to i32
  %55 = load ptr, ptr %9, align 8
  store i32 %54, ptr %55, align 4
  br label %56

56:                                               ; preds = %50, %37
  %57 = getelementptr inbounds %struct.entry, ptr %10, i32 0, i32 0
  %58 = load ptr, ptr %57, align 8
  call void @free(ptr noundef %58) #7
  %59 = load i64, ptr %13, align 8
  store i64 %59, ptr %5, align 8
  br label %63

60:                                               ; preds = %22
  %61 = getelementptr inbounds %struct.entry, ptr %10, i32 0, i32 0
  %62 = load ptr, ptr %61, align 8
  call void @free(ptr noundef %62) #7
  store i64 0, ptr %5, align 8
  br label %63

63:                                               ; preds = %60, %56, %21
  %64 = load i64, ptr %5, align 8
  ret i64 %64
}