; Function Attrs: nounwind uwtable
define hidden i64 @search_symbol(ptr noundef readonly %0, i64 noundef %1, ptr nocapture noundef readonly %2, ptr noundef writeonly %3) local_unnamed_addr #1 {
  %5 = alloca ptr, align 8
  store ptr null, ptr %5, align 8
  %.not = icmp eq ptr %0, null
  br i1 %.not, label %23, label %6

6:                                                ; preds = %4
  %7 = getelementptr inbounds i8, ptr %0, i64 24
  %8 = load ptr, ptr %7, align 8
  %.not15 = icmp eq ptr %8, null
  br i1 %.not15, label %23, label %9

9:                                                ; preds = %6
  %10 = tail call noalias ptr @strdup(ptr noundef %2) #14
  %11 = call i32 @hsearch_r(ptr %10, ptr null, i32 noundef 0, ptr noundef nonnull %5, ptr noundef nonnull %8) #14
  %12 = load ptr, ptr %5, align 8
  %.not16 = icmp eq ptr %12, null
  br i1 %.not16, label %.sink.split, label %13

13:                                               ; preds = %9
  %14 = getelementptr inbounds i8, ptr %12, i64 8
  %15 = load ptr, ptr %14, align 8
  %16 = getelementptr inbounds i8, ptr %15, i64 8
  %17 = load i64, ptr %16, align 8
  %18 = add i64 %17, %1
  %.not17 = icmp eq ptr %3, null
  br i1 %.not17, label %.sink.split, label %19

19:                                               ; preds = %13
  %20 = getelementptr inbounds i8, ptr %15, i64 16
  %21 = load i64, ptr %20, align 8
  %22 = trunc i64 %21 to i32
  store i32 %22, ptr %3, align 4
  br label %.sink.split

.sink.split:                                      ; preds = %9, %13, %19
  %.0.ph = phi i64 [ %18, %19 ], [ %18, %13 ], [ 0, %9 ]
  call void @free(ptr noundef %10) #14
  br label %23

23:                                               ; preds = %.sink.split, %4, %6
  %.0 = phi i64 [ 0, %6 ], [ 0, %4 ], [ %.0.ph, %.sink.split ]
  ret i64 %.0
}